; Function Attrs: mustprogress nounwind uwtable
define hidden noundef ptr @_ZNK12ObjectLookup11ObjectEntry9oop_valueEv(ptr nocapture noundef nonnull readonly align 8 dereferenceable(12) %0) local_unnamed_addr #0 align 2 {
  %2 = load ptr, ptr %0, align 8
  %.not.i = icmp eq ptr %2, null
  br i1 %.not.i, label %_ZN10JNIHandles7resolveEP8_jobject.exit, label %3

3:                                                ; preds = %1
  %4 = ptrtoint ptr %2 to i64
  %5 = and i64 %4, 3
  switch i64 %5, label %14 [
    i64 1, label %6
    i64 2, label %10
  ]

6:                                                ; preds = %3
  %7 = getelementptr inbounds i8, ptr %2, i64 -1
  %8 = load ptr, ptr @_ZN14AccessInternal15RuntimeDispatchILm598084EP7oopDescLNS_11BarrierTypeE2EE10_load_funcE, align 8
  %9 = tail call noundef ptr %8(ptr noundef nonnull %7) #11
  br label %_ZN10JNIHandles7resolveEP8_jobject.exit

10:                                               ; preds = %3
  %11 = getelementptr inbounds i8, ptr %2, i64 -2
  %12 = load ptr, ptr @_ZN14AccessInternal15RuntimeDispatchILm548932EP7oopDescLNS_11BarrierTypeE2EE10_load_funcE, align 8
  %13 = tail call noundef ptr %12(ptr noundef nonnull %11) #11
  br label %_ZN10JNIHandles7resolveEP8_jobject.exit

14:                                               ; preds = %3
  %15 = load ptr, ptr %2, align 8
  br label %_ZN10JNIHandles7resolveEP8_jobject.exit

_ZN10JNIHandles7resolveEP8_jobject.exit:          ; preds = %1, %6, %10, %14
  %.0.i = phi ptr [ null, %1 ], [ %9, %6 ], [ %13, %10 ], [ %15, %14 ]
  ret ptr %.0.i
}